target datalayout = "e-m:e-p270:32:32-p271:32:32-p272:64:64-i64:64-i128:128-f80:128-n8:16:32:64-S128"
target triple = "x86_64-pc-linux-gnu"

%struct.Gia_Man_t_ = type { ptr, ptr, i32, i32, i32, i32, ptr, ptr, i32, i32, i32, ptr, ptr, %struct.Vec_Int_t_, %struct.Vec_Int_t_, i32, i32, i32, %struct.Vec_Int_t_, ptr, ptr, ptr, i32, i32, i32, i32, ptr, ptr, ptr, ptr, ptr, i32, i32, ptr, i32, ptr, ptr, ptr, ptr, ptr, ptr, ptr, ptr, ptr, ptr, ptr, ptr, ptr, ptr, ptr, ptr, ptr, ptr, %struct.Vec_Int_t_, %struct.Vec_Int_t_, ptr, ptr, ptr, ptr, ptr, ptr, ptr, ptr, ptr, ptr, ptr, ptr, ptr, ptr, ptr, ptr, ptr, ptr, ptr, ptr, ptr, i32, float, float, ptr, ptr, i32, ptr, ptr, ptr, ptr, ptr, ptr, ptr, ptr, ptr, ptr, ptr, ptr, ptr, ptr, ptr, i64, i64, ptr, ptr, i32, i32, i32, i32, i32, i32, i32, i32, i32, i32, i32, i32, ptr, ptr, ptr, ptr, ptr, ptr, ptr, ptr, i32, i32, i32, ptr, i32, i32, ptr, ptr, ptr, ptr, ptr, ptr, i32, i32, ptr, %struct.Vec_Int_t_, %struct.Vec_Int_t_, %struct.Vec_Int_t_, ptr, ptr, ptr, i32, i32, i32, i32, ptr, ptr, ptr, ptr, ptr }
%struct.Vec_Int_t_ = type { i32, i32, ptr }

; Function Attrs: nounwind uwtable
define void @Gia_ManTransferTiming(ptr noundef %0, ptr noundef %1) #0 {
  %3 = alloca ptr, align 8
  %4 = alloca ptr, align 8
  store ptr %0, ptr %3, align 8, !tbaa !40
  store ptr %1, ptr %4, align 8, !tbaa !40
  %5 = load ptr, ptr %3, align 8, !tbaa !40
  %6 = load ptr, ptr %4, align 8, !tbaa !40
  %7 = icmp eq ptr %5, %6
  br i1 %7, label %8, label %9

8:                                                ; preds = %2
  br label %207

9:                                                ; preds = %2
  %10 = load ptr, ptr %4, align 8, !tbaa !40
  %11 = getelementptr inbounds nuw %struct.Gia_Man_t_, ptr %10, i32 0, i32 71
  %12 = load ptr, ptr %11, align 8, !tbaa !302
  %13 = icmp ne ptr %12, null
  br i1 %13, label %29, label %14

14:                                               ; preds = %9
  %15 = load ptr, ptr %4, align 8, !tbaa !40
  %16 = getelementptr inbounds nuw %struct.Gia_Man_t_, ptr %15, i32 0, i32 72
  %17 = load ptr, ptr %16, align 8, !tbaa !303
  %18 = icmp ne ptr %17, null
  br i1 %18, label %29, label %19

19:                                               ; preds = %14
  %20 = load ptr, ptr %4, align 8, !tbaa !40
  %21 = getelementptr inbounds nuw %struct.Gia_Man_t_, ptr %20, i32 0, i32 73
  %22 = load ptr, ptr %21, align 8, !tbaa !304
  %23 = icmp ne ptr %22, null
  br i1 %23, label %29, label %24

24:                                               ; preds = %19
  %25 = load ptr, ptr %4, align 8, !tbaa !40
  %26 = getelementptr inbounds nuw %struct.Gia_Man_t_, ptr %25, i32 0, i32 74
  %27 = load ptr, ptr %26, align 8, !tbaa !305
  %28 = icmp ne ptr %27, null
  br i1 %28, label %29, label %63

29:                                               ; preds = %24, %19, %14, %9
  %30 = load ptr, ptr %4, align 8, !tbaa !40
  %31 = getelementptr inbounds nuw %struct.Gia_Man_t_, ptr %30, i32 0, i32 71
  %32 = load ptr, ptr %31, align 8, !tbaa !302
  %33 = load ptr, ptr %3, align 8, !tbaa !40
  %34 = getelementptr inbounds nuw %struct.Gia_Man_t_, ptr %33, i32 0, i32 71
  store ptr %32, ptr %34, align 8, !tbaa !302
  %35 = load ptr, ptr %4, align 8, !tbaa !40
  %36 = getelementptr inbounds nuw %struct.Gia_Man_t_, ptr %35, i32 0, i32 71
  store ptr null, ptr %36, align 8, !tbaa !302
  %37 = load ptr, ptr %4, align 8, !tbaa !40
  %38 = getelementptr inbounds nuw %struct.Gia_Man_t_, ptr %37, i32 0, i32 72
  %39 = load ptr, ptr %38, align 8, !tbaa !303
  %40 = load ptr, ptr %3, align 8, !tbaa !40
  %41 = getelementptr inbounds nuw %struct.Gia_Man_t_, ptr %40, i32 0, i32 72
  store ptr %39, ptr %41, align 8, !tbaa !303
  %42 = load ptr, ptr %4, align 8, !tbaa !40
  %43 = getelementptr inbounds nuw %struct.Gia_Man_t_, ptr %42, i32 0, i32 72
  store ptr null, ptr %43, align 8, !tbaa !303
  %44 = load ptr, ptr %4, align 8, !tbaa !40
  %45 = getelementptr inbounds nuw %struct.Gia_Man_t_, ptr %44, i32 0, i32 73
  %46 = load ptr, ptr %45, align 8, !tbaa !304
  %47 = load ptr, ptr %3, align 8, !tbaa !40
  %48 = getelementptr inbounds nuw %struct.Gia_Man_t_, ptr %47, i32 0, i32 73
  store ptr %46, ptr %48, align 8, !tbaa !304
  %49 = load ptr, ptr %4, align 8, !tbaa !40
  %50 = getelementptr inbounds nuw %struct.Gia_Man_t_, ptr %49, i32 0, i32 73
  store ptr null, ptr %50, align 8, !tbaa !304
  %51 = load ptr, ptr %4, align 8, !tbaa !40
  %52 = getelementptr inbounds nuw %struct.Gia_Man_t_, ptr %51, i32 0, i32 74
  %53 = load ptr, ptr %52, align 8, !tbaa !305
  %54 = load ptr, ptr %3, align 8, !tbaa !40
  %55 = getelementptr inbounds nuw %struct.Gia_Man_t_, ptr %54, i32 0, i32 74
  store ptr %53, ptr %55, align 8, !tbaa !305
  %56 = load ptr, ptr %4, align 8, !tbaa !40
  %57 = getelementptr inbounds nuw %struct.Gia_Man_t_, ptr %56, i32 0, i32 74
  store ptr null, ptr %57, align 8, !tbaa !305
  %58 = load ptr, ptr %4, align 8, !tbaa !40
  %59 = getelementptr inbounds nuw %struct.Gia_Man_t_, ptr %58, i32 0, i32 76
  %60 = load i32, ptr %59, align 8, !tbaa !306
  %61 = load ptr, ptr %3, align 8, !tbaa !40
  %62 = getelementptr inbounds nuw %struct.Gia_Man_t_, ptr %61, i32 0, i32 76
  store i32 %60, ptr %62, align 8, !tbaa !306
  br label %63

63:                                               ; preds = %29, %24
  %64 = load ptr, ptr %4, align 8, !tbaa !40
  %65 = getelementptr inbounds nuw %struct.Gia_Man_t_, ptr %64, i32 0, i32 69
  %66 = load ptr, ptr %65, align 8, !tbaa !307
  %67 = icmp ne ptr %66, null
  br i1 %67, label %73, label %68

68:                                               ; preds = %63
  %69 = load ptr, ptr %4, align 8, !tbaa !40
  %70 = getelementptr inbounds nuw %struct.Gia_Man_t_, ptr %69, i32 0, i32 70
  %71 = load ptr, ptr %70, align 8, !tbaa !308
  %72 = icmp ne ptr %71, null
  br i1 %72, label %73, label %103

73:                                               ; preds = %68, %63
  %74 = load ptr, ptr %4, align 8, !tbaa !40
  %75 = getelementptr inbounds nuw %struct.Gia_Man_t_, ptr %74, i32 0, i32 69
  %76 = load ptr, ptr %75, align 8, !tbaa !307
  %77 = load ptr, ptr %3, align 8, !tbaa !40
  %78 = getelementptr inbounds nuw %struct.Gia_Man_t_, ptr %77, i32 0, i32 69
  store ptr %76, ptr %78, align 8, !tbaa !307
  %79 = load ptr, ptr %4, align 8, !tbaa !40
  %80 = getelementptr inbounds nuw %struct.Gia_Man_t_, ptr %79, i32 0, i32 69
  store ptr null, ptr %80, align 8, !tbaa !307
  %81 = load ptr, ptr %4, align 8, !tbaa !40
  %82 = getelementptr inbounds nuw %struct.Gia_Man_t_, ptr %81, i32 0, i32 70
  %83 = load ptr, ptr %82, align 8, !tbaa !308
  %84 = load ptr, ptr %3, align 8, !tbaa !40
  %85 = getelementptr inbounds nuw %struct.Gia_Man_t_, ptr %84, i32 0, i32 70
  store ptr %83, ptr %85, align 8, !tbaa !308
  %86 = load ptr, ptr %4, align 8, !tbaa !40
  %87 = getelementptr inbounds nuw %struct.Gia_Man_t_, ptr %86, i32 0, i32 70
  store ptr null, ptr %87, align 8, !tbaa !308
  %88 = load ptr, ptr %4, align 8, !tbaa !40
  %89 = getelementptr inbounds nuw %struct.Gia_Man_t_, ptr %88, i32 0, i32 77
  %90 = load float, ptr %89, align 4, !tbaa !309
  %91 = load ptr, ptr %3, align 8, !tbaa !40
  %92 = getelementptr inbounds nuw %struct.Gia_Man_t_, ptr %91, i32 0, i32 77
  store float %90, ptr %92, align 4, !tbaa !309
  %93 = load ptr, ptr %4, align 8, !tbaa !40
  %94 = getelementptr inbounds nuw %struct.Gia_Man_t_, ptr %93, i32 0, i32 78
  %95 = load float, ptr %94, align 8, !tbaa !310
  %96 = load ptr, ptr %3, align 8, !tbaa !40
  %97 = getelementptr inbounds nuw %struct.Gia_Man_t_, ptr %96, i32 0, i32 78
  store float %95, ptr %97, align 8, !tbaa !310
  %98 = load ptr, ptr %4, align 8, !tbaa !40
  %99 = getelementptr inbounds nuw %struct.Gia_Man_t_, ptr %98, i32 0, i32 76
  %100 = load i32, ptr %99, align 8, !tbaa !306
  %101 = load ptr, ptr %3, align 8, !tbaa !40
  %102 = getelementptr inbounds nuw %struct.Gia_Man_t_, ptr %101, i32 0, i32 76
  store i32 %100, ptr %102, align 8, !tbaa !306
  br label %103

103:                                              ; preds = %73, %68
  %104 = load ptr, ptr %4, align 8, !tbaa !40
  %105 = getelementptr inbounds nuw %struct.Gia_Man_t_, ptr %104, i32 0, i32 82
  %106 = load ptr, ptr %105, align 8, !tbaa !311
  %107 = icmp ne ptr %106, null
  br i1 %107, label %118, label %108

108:                                              ; preds = %103
  %109 = load ptr, ptr %4, align 8, !tbaa !40
  %110 = getelementptr inbounds nuw %struct.Gia_Man_t_, ptr %109, i32 0, i32 83
  %111 = load ptr, ptr %110, align 8, !tbaa !312
  %112 = icmp ne ptr %111, null
  br i1 %112, label %118, label %113

113:                                              ; preds = %108
  %114 = load ptr, ptr %4, align 8, !tbaa !40
  %115 = getelementptr inbounds nuw %struct.Gia_Man_t_, ptr %114, i32 0, i32 84
  %116 = load ptr, ptr %115, align 8, !tbaa !313
  %117 = icmp ne ptr %116, null
  br i1 %117, label %118, label %140

118:                                              ; preds = %113, %108, %103
  %119 = load ptr, ptr %4, align 8, !tbaa !40
  %120 = getelementptr inbounds nuw %struct.Gia_Man_t_, ptr %119, i32 0, i32 82
  %121 = load ptr, ptr %120, align 8, !tbaa !311
  %122 = load ptr, ptr %3, align 8, !tbaa !40
  %123 = getelementptr inbounds nuw %struct.Gia_Man_t_, ptr %122, i32 0, i32 82
  store ptr %121, ptr %123, align 8, !tbaa !311
  %124 = load ptr, ptr %4, align 8, !tbaa !40
  %125 = getelementptr inbounds nuw %struct.Gia_Man_t_, ptr %124, i32 0, i32 82
  store ptr null, ptr %125, align 8, !tbaa !311
  %126 = load ptr, ptr %4, align 8, !tbaa !40
  %127 = getelementptr inbounds nuw %struct.Gia_Man_t_, ptr %126, i32 0, i32 83
  %128 = load ptr, ptr %127, align 8, !tbaa !312
  %129 = load ptr, ptr %3, align 8, !tbaa !40
  %130 = getelementptr inbounds nuw %struct.Gia_Man_t_, ptr %129, i32 0, i32 83
  store ptr %128, ptr %130, align 8, !tbaa !312
  %131 = load ptr, ptr %4, align 8, !tbaa !40
  %132 = getelementptr inbounds nuw %struct.Gia_Man_t_, ptr %131, i32 0, i32 83
  store ptr null, ptr %132, align 8, !tbaa !312
  %133 = load ptr, ptr %4, align 8, !tbaa !40
  %134 = getelementptr inbounds nuw %struct.Gia_Man_t_, ptr %133, i32 0, i32 84
  %135 = load ptr, ptr %134, align 8, !tbaa !313
  %136 = load ptr, ptr %3, align 8, !tbaa !40
  %137 = getelementptr inbounds nuw %struct.Gia_Man_t_, ptr %136, i32 0, i32 84
  store ptr %135, ptr %137, align 8, !tbaa !313
  %138 = load ptr, ptr %4, align 8, !tbaa !40
  %139 = getelementptr inbounds nuw %struct.Gia_Man_t_, ptr %138, i32 0, i32 84
  store ptr null, ptr %139, align 8, !tbaa !313
  br label %140

140:                                              ; preds = %118, %113
  %141 = load ptr, ptr %4, align 8, !tbaa !40
  %142 = getelementptr inbounds nuw %struct.Gia_Man_t_, ptr %141, i32 0, i32 43
  %143 = load ptr, ptr %142, align 8, !tbaa !281
  %144 = icmp ne ptr %143, null
  br i1 %144, label %150, label %145

145:                                              ; preds = %140
  %146 = load ptr, ptr %4, align 8, !tbaa !40
  %147 = getelementptr inbounds nuw %struct.Gia_Man_t_, ptr %146, i32 0, i32 44
  %148 = load ptr, ptr %147, align 8, !tbaa !282
  %149 = icmp ne ptr %148, null
  br i1 %149, label %150, label %165

150:                                              ; preds = %145, %140
  %151 = load ptr, ptr %4, align 8, !tbaa !40
  %152 = getelementptr inbounds nuw %struct.Gia_Man_t_, ptr %151, i32 0, i32 43
  %153 = load ptr, ptr %152, align 8, !tbaa !281
  %154 = load ptr, ptr %3, align 8, !tbaa !40
  %155 = getelementptr inbounds nuw %struct.Gia_Man_t_, ptr %154, i32 0, i32 43
  store ptr %153, ptr %155, align 8, !tbaa !281
  %156 = load ptr, ptr %4, align 8, !tbaa !40
  %157 = getelementptr inbounds nuw %struct.Gia_Man_t_, ptr %156, i32 0, i32 43
  store ptr null, ptr %157, align 8, !tbaa !281
  %158 = load ptr, ptr %4, align 8, !tbaa !40
  %159 = getelementptr inbounds nuw %struct.Gia_Man_t_, ptr %158, i32 0, i32 44
  %160 = load ptr, ptr %159, align 8, !tbaa !282
  %161 = load ptr, ptr %3, align 8, !tbaa !40
  %162 = getelementptr inbounds nuw %struct.Gia_Man_t_, ptr %161, i32 0, i32 44
  store ptr %160, ptr %162, align 8, !tbaa !282
  %163 = load ptr, ptr %4, align 8, !tbaa !40
  %164 = getelementptr inbounds nuw %struct.Gia_Man_t_, ptr %163, i32 0, i32 44
  store ptr null, ptr %164, align 8, !tbaa !282
  br label %165

165:                                              ; preds = %150, %145
  %166 = load ptr, ptr %4, align 8, !tbaa !40
  %167 = getelementptr inbounds nuw %struct.Gia_Man_t_, ptr %166, i32 0, i32 95
  %168 = load ptr, ptr %167, align 8, !tbaa !77
  %169 = icmp eq ptr %168, null
  br i1 %169, label %170, label %171

170:                                              ; preds = %165
  br label %207

171:                                              ; preds = %165
  %172 = load ptr, ptr %4, align 8, !tbaa !40
  %173 = getelementptr inbounds nuw %struct.Gia_Man_t_, ptr %172, i32 0, i32 95
  %174 = load ptr, ptr %173, align 8, !tbaa !77
  %175 = load ptr, ptr %3, align 8, !tbaa !40
  %176 = getelementptr inbounds nuw %struct.Gia_Man_t_, ptr %175, i32 0, i32 95
  store ptr %174, ptr %176, align 8, !tbaa !77
  %177 = load ptr, ptr %4, align 8, !tbaa !40
  %178 = getelementptr inbounds nuw %struct.Gia_Man_t_, ptr %177, i32 0, i32 95
  store ptr null, ptr %178, align 8, !tbaa !77
  %179 = load ptr, ptr %4, align 8, !tbaa !40
  %180 = getelementptr inbounds nuw %struct.Gia_Man_t_, ptr %179, i32 0, i32 68
  %181 = load ptr, ptr %180, align 8, !tbaa !314
  %182 = load ptr, ptr %3, align 8, !tbaa !40
  %183 = getelementptr inbounds nuw %struct.Gia_Man_t_, ptr %182, i32 0, i32 68
  store ptr %181, ptr %183, align 8, !tbaa !314
  %184 = load ptr, ptr %4, align 8, !tbaa !40
  %185 = getelementptr inbounds nuw %struct.Gia_Man_t_, ptr %184, i32 0, i32 68
  store ptr null, ptr %185, align 8, !tbaa !314
  %186 = load ptr, ptr %4, align 8, !tbaa !40
  %187 = getelementptr inbounds nuw %struct.Gia_Man_t_, ptr %186, i32 0, i32 61
  %188 = load ptr, ptr %187, align 8, !tbaa !315
  %189 = load ptr, ptr %3, align 8, !tbaa !40
  %190 = getelementptr inbounds nuw %struct.Gia_Man_t_, ptr %189, i32 0, i32 61
  store ptr %188, ptr %190, align 8, !tbaa !315
  %191 = load ptr, ptr %4, align 8, !tbaa !40
  %192 = getelementptr inbounds nuw %struct.Gia_Man_t_, ptr %191, i32 0, i32 61
  store ptr null, ptr %192, align 8, !tbaa !315
  %193 = load ptr, ptr %4, align 8, !tbaa !40
  %194 = getelementptr inbounds nuw %struct.Gia_Man_t_, ptr %193, i32 0, i32 62
  %195 = load ptr, ptr %194, align 8, !tbaa !316
  %196 = load ptr, ptr %3, align 8, !tbaa !40
  %197 = getelementptr inbounds nuw %struct.Gia_Man_t_, ptr %196, i32 0, i32 62
  store ptr %195, ptr %197, align 8, !tbaa !316
  %198 = load ptr, ptr %4, align 8, !tbaa !40
  %199 = getelementptr inbounds nuw %struct.Gia_Man_t_, ptr %198, i32 0, i32 62
  store ptr null, ptr %199, align 8, !tbaa !316
  %200 = load ptr, ptr %4, align 8, !tbaa !40
  %201 = getelementptr inbounds nuw %struct.Gia_Man_t_, ptr %200, i32 0, i32 103
  %202 = load i32, ptr %201, align 8, !tbaa !317
  %203 = load ptr, ptr %3, align 8, !tbaa !40
  %204 = getelementptr inbounds nuw %struct.Gia_Man_t_, ptr %203, i32 0, i32 103
  store i32 %202, ptr %204, align 8, !tbaa !317
  %205 = load ptr, ptr %4, align 8, !tbaa !40
  %206 = getelementptr inbounds nuw %struct.Gia_Man_t_, ptr %205, i32 0, i32 103
  store i32 0, ptr %206, align 8, !tbaa !317
  br label %207

207:                                              ; preds = %171, %170, %8
  ret void
}