; Function Attrs: mustprogress nofree norecurse nosync nounwind willreturn memory(argmem: readwrite) uwtable
define void @Gia_ManTransferTiming(ptr noundef writeonly %0, ptr noundef %1) local_unnamed_addr #14 {
  %3 = icmp eq ptr %0, %1
  br i1 %3, label %86, label %4

4:                                                ; preds = %2
  %5 = getelementptr inbounds nuw i8, ptr %1, i64 552
  %6 = load ptr, ptr %5, align 8, !tbaa !286
  %.not = icmp eq ptr %6, null
  %7 = getelementptr inbounds nuw i8, ptr %1, i64 560
  %8 = load ptr, ptr %7, align 8, !tbaa !287
  %.not72 = icmp eq ptr %8, null
  %or.cond = select i1 %.not, i1 %.not72, i1 false
  br i1 %or.cond, label %9, label %._crit_edge

9:                                                ; preds = %4
  %10 = getelementptr inbounds nuw i8, ptr %1, i64 568
  %11 = load ptr, ptr %10, align 8, !tbaa !288
  %.not73 = icmp eq ptr %11, null
  br i1 %.not73, label %12, label %._crit_edge

12:                                               ; preds = %9
  %13 = getelementptr inbounds nuw i8, ptr %1, i64 576
  %14 = load ptr, ptr %13, align 8, !tbaa !289
  %.not74 = icmp eq ptr %14, null
  br i1 %.not74, label %28, label %._crit_edge

._crit_edge:                                      ; preds = %4, %12, %9
  %15 = phi ptr [ null, %12 ], [ null, %9 ], [ %8, %4 ]
  %16 = getelementptr inbounds nuw i8, ptr %0, i64 552
  store ptr %6, ptr %16, align 8, !tbaa !286
  store ptr null, ptr %5, align 8, !tbaa !286
  %17 = getelementptr inbounds nuw i8, ptr %1, i64 560
  %18 = getelementptr inbounds nuw i8, ptr %0, i64 560
  store ptr %15, ptr %18, align 8, !tbaa !287
  store ptr null, ptr %17, align 8, !tbaa !287
  %19 = getelementptr inbounds nuw i8, ptr %1, i64 568
  %20 = load ptr, ptr %19, align 8, !tbaa !288
  %21 = getelementptr inbounds nuw i8, ptr %0, i64 568
  store ptr %20, ptr %21, align 8, !tbaa !288
  store ptr null, ptr %19, align 8, !tbaa !288
  %22 = getelementptr inbounds nuw i8, ptr %1, i64 576
  %23 = load ptr, ptr %22, align 8, !tbaa !289
  %24 = getelementptr inbounds nuw i8, ptr %0, i64 576
  store ptr %23, ptr %24, align 8, !tbaa !289
  store ptr null, ptr %22, align 8, !tbaa !289
  %25 = getelementptr inbounds nuw i8, ptr %1, i64 592
  %26 = load i32, ptr %25, align 8, !tbaa !290
  %27 = getelementptr inbounds nuw i8, ptr %0, i64 592
  store i32 %26, ptr %27, align 8, !tbaa !290
  br label %28

28:                                               ; preds = %._crit_edge, %12
  %29 = getelementptr inbounds nuw i8, ptr %1, i64 536
  %30 = load ptr, ptr %29, align 8, !tbaa !291
  %.not75 = icmp eq ptr %30, null
  %31 = getelementptr inbounds nuw i8, ptr %1, i64 544
  %32 = load ptr, ptr %31, align 8, !tbaa !292
  %.not76 = icmp eq ptr %32, null
  %or.cond91 = select i1 %.not75, i1 %.not76, i1 false
  br i1 %or.cond91, label %45, label %._crit_edge82

._crit_edge82:                                    ; preds = %28
  %33 = getelementptr inbounds nuw i8, ptr %0, i64 536
  store ptr %30, ptr %33, align 8, !tbaa !291
  store ptr null, ptr %29, align 8, !tbaa !291
  %34 = getelementptr inbounds nuw i8, ptr %1, i64 544
  %35 = getelementptr inbounds nuw i8, ptr %0, i64 544
  store ptr %32, ptr %35, align 8, !tbaa !292
  store ptr null, ptr %34, align 8, !tbaa !292
  %36 = getelementptr inbounds nuw i8, ptr %1, i64 596
  %37 = load float, ptr %36, align 4, !tbaa !293
  %38 = getelementptr inbounds nuw i8, ptr %0, i64 596
  store float %37, ptr %38, align 4, !tbaa !293
  %39 = getelementptr inbounds nuw i8, ptr %1, i64 600
  %40 = load float, ptr %39, align 8, !tbaa !294
  %41 = getelementptr inbounds nuw i8, ptr %0, i64 600
  store float %40, ptr %41, align 8, !tbaa !294
  %42 = getelementptr inbounds nuw i8, ptr %1, i64 592
  %43 = load i32, ptr %42, align 8, !tbaa !290
  %44 = getelementptr inbounds nuw i8, ptr %0, i64 592
  store i32 %43, ptr %44, align 8, !tbaa !290
  br label %45

45:                                               ; preds = %28, %._crit_edge82
  %46 = getelementptr inbounds nuw i8, ptr %1, i64 632
  %47 = load ptr, ptr %46, align 8, !tbaa !295
  %.not77 = icmp eq ptr %47, null
  %48 = getelementptr inbounds nuw i8, ptr %1, i64 640
  %49 = load ptr, ptr %48, align 8, !tbaa !296
  %.not78 = icmp eq ptr %49, null
  %or.cond92 = select i1 %.not77, i1 %.not78, i1 false
  br i1 %or.cond92, label %50, label %._crit_edge85

50:                                               ; preds = %45
  %51 = getelementptr inbounds nuw i8, ptr %1, i64 648
  %52 = load ptr, ptr %51, align 8, !tbaa !297
  %.not79 = icmp eq ptr %52, null
  br i1 %.not79, label %60, label %._crit_edge85

._crit_edge85:                                    ; preds = %45, %50
  %53 = phi ptr [ null, %50 ], [ %49, %45 ]
  %54 = getelementptr inbounds nuw i8, ptr %0, i64 632
  store ptr %47, ptr %54, align 8, !tbaa !295
  store ptr null, ptr %46, align 8, !tbaa !295
  %55 = getelementptr inbounds nuw i8, ptr %1, i64 640
  %56 = getelementptr inbounds nuw i8, ptr %0, i64 640
  store ptr %53, ptr %56, align 8, !tbaa !296
  store ptr null, ptr %55, align 8, !tbaa !296
  %57 = getelementptr inbounds nuw i8, ptr %1, i64 648
  %58 = load ptr, ptr %57, align 8, !tbaa !297
  %59 = getelementptr inbounds nuw i8, ptr %0, i64 648
  store ptr %58, ptr %59, align 8, !tbaa !297
  store ptr null, ptr %57, align 8, !tbaa !297
  br label %60

60:                                               ; preds = %._crit_edge85, %50
  %61 = getelementptr inbounds nuw i8, ptr %1, i64 312
  %62 = load ptr, ptr %61, align 8, !tbaa !276
  %.not80 = icmp eq ptr %62, null
  %63 = getelementptr inbounds nuw i8, ptr %1, i64 320
  %64 = load ptr, ptr %63, align 8, !tbaa !277
  %.not81 = icmp eq ptr %64, null
  %or.cond93 = select i1 %.not80, i1 %.not81, i1 false
  br i1 %or.cond93, label %68, label %._crit_edge88

._crit_edge88:                                    ; preds = %60
  %65 = getelementptr inbounds nuw i8, ptr %0, i64 312
  store ptr %62, ptr %65, align 8, !tbaa !276
  store ptr null, ptr %61, align 8, !tbaa !276
  %66 = getelementptr inbounds nuw i8, ptr %1, i64 320
  %67 = getelementptr inbounds nuw i8, ptr %0, i64 320
  store ptr %64, ptr %67, align 8, !tbaa !277
  store ptr null, ptr %66, align 8, !tbaa !277
  br label %68

68:                                               ; preds = %60, %._crit_edge88
  %69 = getelementptr inbounds nuw i8, ptr %1, i64 736
  %70 = load ptr, ptr %69, align 8, !tbaa !60
  %71 = icmp eq ptr %70, null
  br i1 %71, label %86, label %72

72:                                               ; preds = %68
  %73 = getelementptr inbounds nuw i8, ptr %0, i64 736
  store ptr %70, ptr %73, align 8, !tbaa !60
  store ptr null, ptr %69, align 8, !tbaa !60
  %74 = getelementptr inbounds nuw i8, ptr %1, i64 528
  %75 = load ptr, ptr %74, align 8, !tbaa !298
  %76 = getelementptr inbounds nuw i8, ptr %0, i64 528
  store ptr %75, ptr %76, align 8, !tbaa !298
  store ptr null, ptr %74, align 8, !tbaa !298
  %77 = getelementptr inbounds nuw i8, ptr %1, i64 472
  %78 = load ptr, ptr %77, align 8, !tbaa !299
  %79 = getelementptr inbounds nuw i8, ptr %0, i64 472
  store ptr %78, ptr %79, align 8, !tbaa !299
  store ptr null, ptr %77, align 8, !tbaa !299
  %80 = getelementptr inbounds nuw i8, ptr %1, i64 480
  %81 = load ptr, ptr %80, align 8, !tbaa !300
  %82 = getelementptr inbounds nuw i8, ptr %0, i64 480
  store ptr %81, ptr %82, align 8, !tbaa !300
  store ptr null, ptr %80, align 8, !tbaa !300
  %83 = getelementptr inbounds nuw i8, ptr %1, i64 792
  %84 = load i32, ptr %83, align 8, !tbaa !301
  %85 = getelementptr inbounds nuw i8, ptr %0, i64 792
  store i32 %84, ptr %85, align 8, !tbaa !301
  store i32 0, ptr %83, align 8, !tbaa !301
  br label %86

86:                                               ; preds = %68, %2, %72
  ret void
}